; Function Attrs: mustprogress nounwind uwtable
define internal fastcc void @_ZN12_GLOBAL__N_111TypePrinter19printDecltypeBeforeEPKN5clang12DecltypeTypeERN4llvm11raw_ostreamE(ptr noundef nonnull align 8 dereferenceable(22) %0, ptr nocapture noundef readonly %1, ptr noundef nonnull align 8 dereferenceable(48) %2) unnamed_addr #0 align 2 {
  %4 = alloca %"class.llvm::StringRef", align 8
  %5 = getelementptr inbounds nuw i8, ptr %2, i64 24
  %6 = load ptr, ptr %5, align 8
  %7 = getelementptr inbounds nuw i8, ptr %2, i64 32
  %8 = load ptr, ptr %7, align 8
  %9 = ptrtoint ptr %6 to i64
  %10 = ptrtoint ptr %8 to i64
  %11 = sub i64 %9, %10
  %12 = icmp ult i64 %11, 9
  br i1 %12, label %13, label %15

13:                                               ; preds = %3
  %14 = tail call noundef nonnull align 8 dereferenceable(48) ptr @_ZN4llvm11raw_ostream5writeEPKcm(ptr noundef nonnull align 8 dereferenceable(48) %2, ptr noundef nonnull @.str.60, i64 noundef 9) #16
  br label %_ZN4llvm11raw_ostreamlsEPKc.exit

15:                                               ; preds = %3
  tail call void @llvm.memcpy.p0.p0.i64(ptr noundef nonnull align 1 dereferenceable(9) %8, ptr noundef nonnull align 1 dereferenceable(9) @.str.60, i64 9, i1 false)
  %16 = load ptr, ptr %7, align 8
  %17 = getelementptr inbounds i8, ptr %16, i64 9
  store ptr %17, ptr %7, align 8
  br label %_ZN4llvm11raw_ostreamlsEPKc.exit

_ZN4llvm11raw_ostreamlsEPKc.exit:                 ; preds = %13, %15
  %18 = getelementptr inbounds nuw i8, ptr %1, i64 24
  %19 = load ptr, ptr %18, align 8
  %.not = icmp eq ptr %19, null
  br i1 %.not, label %22, label %20

20:                                               ; preds = %_ZN4llvm11raw_ostreamlsEPKc.exit
  store ptr @.str.5, ptr %4, align 8
  %21 = getelementptr inbounds nuw i8, ptr %4, i64 8
  store i64 1, ptr %21, align 8
  tail call void @_ZNK5clang4Stmt11printPrettyERN4llvm11raw_ostreamEPNS_13PrinterHelperERKNS_14PrintingPolicyEjNS1_9StringRefEPKNS_10ASTContextE(ptr noundef nonnull align 8 dereferenceable(8) %19, ptr noundef nonnull align 8 dereferenceable(48) %2, ptr noundef null, ptr noundef nonnull align 8 dereferenceable(16) %0, i32 noundef 0, ptr noundef nonnull byval(%"class.llvm::StringRef") align 8 %4, ptr noundef null) #16
  br label %22

22:                                               ; preds = %20, %_ZN4llvm11raw_ostreamlsEPKc.exit
  %23 = load ptr, ptr %7, align 8
  %24 = load ptr, ptr %5, align 8
  %.not.i = icmp ult ptr %23, %24
  br i1 %.not.i, label %27, label %25

25:                                               ; preds = %22
  %26 = tail call noundef nonnull align 8 dereferenceable(48) ptr @_ZN4llvm11raw_ostream5writeEh(ptr noundef nonnull align 8 dereferenceable(48) %2, i8 noundef zeroext 41) #16
  br label %_ZN4llvm11raw_ostreamlsEc.exit

27:                                               ; preds = %22
  %28 = getelementptr inbounds i8, ptr %23, i64 1
  store ptr %28, ptr %7, align 8
  store i8 41, ptr %23, align 1
  br label %_ZN4llvm11raw_ostreamlsEc.exit

_ZN4llvm11raw_ostreamlsEc.exit:                   ; preds = %25, %27
  %29 = getelementptr inbounds i8, ptr %0, i64 20
  %.val = load i8, ptr %29, align 4
  %30 = trunc i8 %.val to i1
  br i1 %30, label %_ZN12_GLOBAL__N_111TypePrinter22spaceBeforePlaceHolderERN4llvm11raw_ostreamE.exit, label %31

31:                                               ; preds = %_ZN4llvm11raw_ostreamlsEc.exit
  %32 = load ptr, ptr %7, align 8
  %33 = load ptr, ptr %5, align 8
  %.not.i.i = icmp ult ptr %32, %33
  br i1 %.not.i.i, label %36, label %34

34:                                               ; preds = %31
  %35 = tail call noundef nonnull align 8 dereferenceable(48) ptr @_ZN4llvm11raw_ostream5writeEh(ptr noundef nonnull align 8 dereferenceable(48) %2, i8 noundef zeroext 32) #16
  br label %_ZN12_GLOBAL__N_111TypePrinter22spaceBeforePlaceHolderERN4llvm11raw_ostreamE.exit

36:                                               ; preds = %31
  %37 = getelementptr inbounds i8, ptr %32, i64 1
  store ptr %37, ptr %7, align 8
  store i8 32, ptr %32, align 1
  br label %_ZN12_GLOBAL__N_111TypePrinter22spaceBeforePlaceHolderERN4llvm11raw_ostreamE.exit

_ZN12_GLOBAL__N_111TypePrinter22spaceBeforePlaceHolderERN4llvm11raw_ostreamE.exit: ; preds = %_ZN4llvm11raw_ostreamlsEc.exit, %34, %36
  ret void
}